target datalayout = "e-m:e-p270:32:32-p271:32:32-p272:64:64-i64:64-i128:128-f80:128-n8:16:32:64-S128"
target triple = "x86_64-pc-linux-gnu"

%struct._address = type { i32, i32, ptr, ptr }
%struct._packet_info = type { ptr, ptr, i32, i32, %struct.nstime_t, %struct.nstime_t, %struct.nstime_t, i8, ptr, ptr, ptr, ptr, %struct._address, %struct._address, %struct._address, %struct._address, %struct._address, %struct._address, i32, ptr, i8, [3 x i8], %struct.anon, i32, i32, i32, i32, ptr, i8, ptr, ptr, i16, i16, i32, i32, i16, i32, i32, ptr, ptr, ptr, i8, i8, i16, i16, i16, i32, i16, i16, ptr, ptr, ptr, ptr, ptr, i32, i32 }
%struct.nstime_t = type { i64, i32 }
%struct.anon = type { i8, [3 x i8] }

@hf_ieee80211_ff_ftm_tod_err1 = internal global i32 0, align 4
@hf_ieee80211_ff_ftm_toa_err1 = internal global i32 0, align 4
@hf_ieee80211_ff_ftm_cfo = internal global i32 0, align 4
@hf_ieee80211_ff_ftm_r2i_ndp_tx_power = internal global i32 0, align 4
@hf_ieee80211_ff_ftm_i2r_ndp_target_rssi = internal global i32 0, align 4
@hf_ieee80211_ff_dialog_token = internal global i32 0, align 4
@hf_ieee80211_ff_ftm_tod = internal global i32 0, align 4
@hf_ieee80211_ff_ftm_toa = internal global i32 0, align 4
@ett_ff_ftm_tod_err1 = internal global i32 0, align 4
@ett_ff_ftm_toa_err1 = internal global i32 0, align 4
@.str.7670 = private unnamed_addr constant [18 x i8] c", Dialog Token=%d\00", align 1
@add_ff_ftm_tod_err1.fields = internal constant [4 x ptr] [ptr @hf_ieee80211_ff_ftm_max_tod_error_exponent, ptr @hf_ieee80211_ff_ftm_tod_err_reserved, ptr @hf_ieee80211_ff_ftm_tod_not_continuous, ptr null], align 16
@add_ff_ftm_toa_err1.fields = internal constant [5 x ptr] [ptr @hf_ieee80211_ff_ftm_max_toa_error_exponent, ptr @hf_ieee80211_ff_ftm_toa_err_reserved, ptr @hf_ieee80211_ff_ftm_invalid_measurement, ptr @hf_ieee80211_ff_ftm_toa_type, ptr null], align 16

; Function Attrs: null_pointer_is_valid sspstrong uwtable
define internal i32 @add_ff_ftm_i2r_ndp_target_rssi(ptr noundef %0, ptr noundef %1, ptr noundef %2, i32 noundef %3) #1 {
  %5 = alloca ptr, align 8
  %6 = alloca ptr, align 8
  %7 = alloca ptr, align 8
  %8 = alloca i32, align 4
  store ptr %0, ptr %5, align 8
  store ptr %1, ptr %6, align 8
  store ptr %2, ptr %7, align 8
  store i32 %3, ptr %8, align 4
  %9 = load ptr, ptr %5, align 8
  %10 = load i32, ptr @hf_ieee80211_ff_ftm_i2r_ndp_target_rssi, align 4
  %11 = load ptr, ptr %6, align 8
  %12 = load i32, ptr %8, align 4
  %13 = call ptr @proto_tree_add_item(ptr noundef %9, i32 noundef %10, ptr noundef %11, i32 noundef %12, i32 noundef 1, i32 noundef -2147483648)
  ret i32 1
}

; Function Attrs: null_pointer_is_valid sspstrong uwtable
define internal i32 @add_ff_ftm_r2i_ndp_tx_power(ptr noundef %0, ptr noundef %1, ptr noundef %2, i32 noundef %3) #1 {
  %5 = alloca ptr, align 8
  %6 = alloca ptr, align 8
  %7 = alloca ptr, align 8
  %8 = alloca i32, align 4
  store ptr %0, ptr %5, align 8
  store ptr %1, ptr %6, align 8
  store ptr %2, ptr %7, align 8
  store i32 %3, ptr %8, align 4
  %9 = load ptr, ptr %5, align 8
  %10 = load i32, ptr @hf_ieee80211_ff_ftm_r2i_ndp_tx_power, align 4
  %11 = load ptr, ptr %6, align 8
  %12 = load i32, ptr %8, align 4
  %13 = call ptr @proto_tree_add_item(ptr noundef %9, i32 noundef %10, ptr noundef %11, i32 noundef %12, i32 noundef 1, i32 noundef -2147483648)
  ret i32 1
}

; Function Attrs: null_pointer_is_valid sspstrong uwtable
define internal i32 @add_ff_ftm_cfo_parameter(ptr noundef %0, ptr noundef %1, ptr noundef %2, i32 noundef %3) #1 {
  %5 = alloca ptr, align 8
  %6 = alloca ptr, align 8
  %7 = alloca ptr, align 8
  %8 = alloca i32, align 4
  store ptr %0, ptr %5, align 8
  store ptr %1, ptr %6, align 8
  store ptr %2, ptr %7, align 8
  store i32 %3, ptr %8, align 4
  %9 = load ptr, ptr %5, align 8
  %10 = load i32, ptr @hf_ieee80211_ff_ftm_cfo, align 4
  %11 = load ptr, ptr %6, align 8
  %12 = load i32, ptr %8, align 4
  %13 = call ptr @proto_tree_add_item(ptr noundef %9, i32 noundef %10, ptr noundef %11, i32 noundef %12, i32 noundef 2, i32 noundef -2147483648)
  ret i32 2
}

; Function Attrs: null_pointer_is_valid sspstrong uwtable
define internal i32 @add_ff_ftm_toa_err1(ptr noundef %0, ptr noundef %1, ptr noundef %2, i32 noundef %3) #1 {
  %5 = alloca ptr, align 8
  %6 = alloca ptr, align 8
  %7 = alloca ptr, align 8
  %8 = alloca i32, align 4
  store ptr %0, ptr %5, align 8
  store ptr %1, ptr %6, align 8
  store ptr %2, ptr %7, align 8
  store i32 %3, ptr %8, align 4
  %9 = load ptr, ptr %5, align 8
  %10 = load ptr, ptr %6, align 8
  %11 = load i32, ptr %8, align 4
  %12 = load i32, ptr @hf_ieee80211_ff_ftm_toa_err1, align 4
  %13 = load i32, ptr @ett_ff_ftm_toa_err1, align 4
  %14 = call ptr @proto_tree_add_bitmask_with_flags(ptr noundef %9, ptr noundef %10, i32 noundef %11, i32 noundef %12, i32 noundef %13, ptr noundef @add_ff_ftm_toa_err1.fields, i32 noundef -2147483648, i32 noundef 1)
  ret i32 1
}

; Function Attrs: null_pointer_is_valid sspstrong uwtable
define internal i32 @add_ff_ftm_tod_err1(ptr noundef %0, ptr noundef %1, ptr noundef %2, i32 noundef %3) #1 {
  %5 = alloca ptr, align 8
  %6 = alloca ptr, align 8
  %7 = alloca ptr, align 8
  %8 = alloca i32, align 4
  store ptr %0, ptr %5, align 8
  store ptr %1, ptr %6, align 8
  store ptr %2, ptr %7, align 8
  store i32 %3, ptr %8, align 4
  %9 = load ptr, ptr %5, align 8
  %10 = load ptr, ptr %6, align 8
  %11 = load i32, ptr %8, align 4
  %12 = load i32, ptr @hf_ieee80211_ff_ftm_tod_err1, align 4
  %13 = load i32, ptr @ett_ff_ftm_tod_err1, align 4
  %14 = call ptr @proto_tree_add_bitmask_with_flags(ptr noundef %9, ptr noundef %10, i32 noundef %11, i32 noundef %12, i32 noundef %13, ptr noundef @add_ff_ftm_tod_err1.fields, i32 noundef -2147483648, i32 noundef 1)
  ret i32 1
}

; Function Attrs: null_pointer_is_valid sspstrong uwtable
define internal i32 @add_ff_ftm_toa(ptr noundef %0, ptr noundef %1, ptr noundef %2, i32 noundef %3) #1 {
  %5 = alloca ptr, align 8
  %6 = alloca ptr, align 8
  %7 = alloca ptr, align 8
  %8 = alloca i32, align 4
  store ptr %0, ptr %5, align 8
  store ptr %1, ptr %6, align 8
  store ptr %2, ptr %7, align 8
  store i32 %3, ptr %8, align 4
  %9 = load ptr, ptr %5, align 8
  %10 = load i32, ptr @hf_ieee80211_ff_ftm_toa, align 4
  %11 = load ptr, ptr %6, align 8
  %12 = load i32, ptr %8, align 4
  %13 = call ptr @proto_tree_add_item(ptr noundef %9, i32 noundef %10, ptr noundef %11, i32 noundef %12, i32 noundef 6, i32 noundef -2147483648)
  ret i32 6
}

; Function Attrs: null_pointer_is_valid sspstrong uwtable
define internal i32 @add_ff_ftm_tod(ptr noundef %0, ptr noundef %1, ptr noundef %2, i32 noundef %3) #1 {
  %5 = alloca ptr, align 8
  %6 = alloca ptr, align 8
  %7 = alloca ptr, align 8
  %8 = alloca i32, align 4
  store ptr %0, ptr %5, align 8
  store ptr %1, ptr %6, align 8
  store ptr %2, ptr %7, align 8
  store i32 %3, ptr %8, align 4
  %9 = load ptr, ptr %5, align 8
  %10 = load i32, ptr @hf_ieee80211_ff_ftm_tod, align 4
  %11 = load ptr, ptr %6, align 8
  %12 = load i32, ptr %8, align 4
  %13 = call ptr @proto_tree_add_item(ptr noundef %9, i32 noundef %10, ptr noundef %11, i32 noundef %12, i32 noundef 6, i32 noundef -2147483648)
  ret i32 6
}

; Function Attrs: null_pointer_is_valid sspstrong uwtable
define internal i32 @add_ff_dialog_token(ptr noundef %0, ptr noundef %1, ptr noundef %2, i32 noundef %3) #1 {
  %5 = alloca ptr, align 8
  %6 = alloca ptr, align 8
  %7 = alloca ptr, align 8
  %8 = alloca i32, align 4
  %9 = alloca i8, align 1
  store ptr %0, ptr %5, align 8
  store ptr %1, ptr %6, align 8
  store ptr %2, ptr %7, align 8
  store i32 %3, ptr %8, align 4
  call void @llvm.lifetime.start.p0(i64 1, ptr %9) #19
  %10 = load ptr, ptr %6, align 8
  %11 = load i32, ptr %8, align 4
  %12 = call zeroext i8 @tvb_get_uint8(ptr noundef %10, i32 noundef %11)
  store i8 %12, ptr %9, align 1
  %13 = load ptr, ptr %7, align 8
  %14 = getelementptr inbounds nuw %struct._packet_info, ptr %13, i32 0, i32 1
  %15 = load ptr, ptr %14, align 8
  %16 = load i8, ptr %9, align 1
  %17 = zext i8 %16 to i32
  call void (ptr, i32, ptr, ...) @col_append_fstr(ptr noundef %15, i32 noundef 25, ptr noundef @.str.7670, i32 noundef %17)
  %18 = load ptr, ptr %5, align 8
  %19 = load i32, ptr @hf_ieee80211_ff_dialog_token, align 4
  %20 = load ptr, ptr %6, align 8
  %21 = load i32, ptr %8, align 4
  %22 = call ptr @proto_tree_add_item(ptr noundef %18, i32 noundef %19, ptr noundef %20, i32 noundef %21, i32 noundef 1, i32 noundef -2147483648)
  call void @llvm.lifetime.end.p0(i64 1, ptr %9) #19
  ret i32 1
}

; Function Attrs: null_pointer_is_valid sspstrong uwtable
define internal i32 @add_ff_lmr_report(ptr noundef %0, ptr noundef %1, ptr noundef %2, i32 noundef %3) #1 {
  %5 = alloca ptr, align 8
  %6 = alloca ptr, align 8
  %7 = alloca ptr, align 8
  %8 = alloca i32, align 4
  store ptr %0, ptr %5, align 8
  store ptr %1, ptr %6, align 8
  store ptr %2, ptr %7, align 8
  store i32 %3, ptr %8, align 4
  %9 = load ptr, ptr %5, align 8
  %10 = load ptr, ptr %6, align 8
  %11 = load ptr, ptr %7, align 8
  %12 = load i32, ptr %8, align 4
  %13 = call i32 @add_ff_dialog_token(ptr noundef %9, ptr noundef %10, ptr noundef %11, i32 noundef %12)
  %14 = load i32, ptr %8, align 4
  %15 = add i32 %14, %13
  store i32 %15, ptr %8, align 4
  %16 = load ptr, ptr %5, align 8
  %17 = load ptr, ptr %6, align 8
  %18 = load ptr, ptr %7, align 8
  %19 = load i32, ptr %8, align 4
  %20 = call i32 @add_ff_ftm_tod(ptr noundef %16, ptr noundef %17, ptr noundef %18, i32 noundef %19)
  %21 = load i32, ptr %8, align 4
  %22 = add i32 %21, %20
  store i32 %22, ptr %8, align 4
  %23 = load ptr, ptr %5, align 8
  %24 = load ptr, ptr %6, align 8
  %25 = load ptr, ptr %7, align 8
  %26 = load i32, ptr %8, align 4
  %27 = call i32 @add_ff_ftm_toa(ptr noundef %23, ptr noundef %24, ptr noundef %25, i32 noundef %26)
  %28 = load i32, ptr %8, align 4
  %29 = add i32 %28, %27
  store i32 %29, ptr %8, align 4
  %30 = load ptr, ptr %5, align 8
  %31 = load ptr, ptr %6, align 8
  %32 = load ptr, ptr %7, align 8
  %33 = load i32, ptr %8, align 4
  %34 = call i32 @add_ff_ftm_tod_err1(ptr noundef %30, ptr noundef %31, ptr noundef %32, i32 noundef %33)
  %35 = load i32, ptr %8, align 4
  %36 = add i32 %35, %34
  store i32 %36, ptr %8, align 4
  %37 = load ptr, ptr %5, align 8
  %38 = load ptr, ptr %6, align 8
  %39 = load ptr, ptr %7, align 8
  %40 = load i32, ptr %8, align 4
  %41 = call i32 @add_ff_ftm_toa_err1(ptr noundef %37, ptr noundef %38, ptr noundef %39, i32 noundef %40)
  %42 = load i32, ptr %8, align 4
  %43 = add i32 %42, %41
  store i32 %43, ptr %8, align 4
  %44 = load ptr, ptr %5, align 8
  %45 = load ptr, ptr %6, align 8
  %46 = load ptr, ptr %7, align 8
  %47 = load i32, ptr %8, align 4
  %48 = call i32 @add_ff_ftm_cfo_parameter(ptr noundef %44, ptr noundef %45, ptr noundef %46, i32 noundef %47)
  %49 = load i32, ptr %8, align 4
  %50 = add i32 %49, %48
  store i32 %50, ptr %8, align 4
  %51 = load ptr, ptr %5, align 8
  %52 = load ptr, ptr %6, align 8
  %53 = load ptr, ptr %7, align 8
  %54 = load i32, ptr %8, align 4
  %55 = call i32 @add_ff_ftm_r2i_ndp_tx_power(ptr noundef %51, ptr noundef %52, ptr noundef %53, i32 noundef %54)
  %56 = load i32, ptr %8, align 4
  %57 = add i32 %56, %55
  store i32 %57, ptr %8, align 4
  %58 = load ptr, ptr %5, align 8
  %59 = load ptr, ptr %6, align 8
  %60 = load ptr, ptr %7, align 8
  %61 = load i32, ptr %8, align 4
  %62 = call i32 @add_ff_ftm_i2r_ndp_target_rssi(ptr noundef %58, ptr noundef %59, ptr noundef %60, i32 noundef %61)
  %63 = load i32, ptr %8, align 4
  %64 = add i32 %63, %62
  store i32 %64, ptr %8, align 4
  %65 = load i32, ptr %8, align 4
  ret i32 %65
}