; Function Attrs: null_pointer_is_valid sspstrong uwtable
define internal fastcc noundef i32 @add_ff_lmr_report(ptr noundef %0, ptr noundef %1, ptr noundef readonly captures(none) %2, i32 noundef %3) unnamed_addr #2 {
  %5 = tail call zeroext i8 @tvb_get_uint8(ptr noundef %1, i32 noundef %3)
  %6 = getelementptr inbounds nuw i8, ptr %2, i64 8
  %7 = load ptr, ptr %6, align 8
  %8 = zext i8 %5 to i32
  tail call void (ptr, i32, ptr, ...) @col_append_fstr(ptr noundef %7, i32 noundef 25, ptr noundef nonnull @.str.7670, i32 noundef %8)
  %9 = load i32, ptr @hf_ieee80211_ff_dialog_token, align 4
  %10 = tail call ptr @proto_tree_add_item(ptr noundef %0, i32 noundef %9, ptr noundef %1, i32 noundef %3, i32 noundef 1, i32 noundef -2147483648)
  %11 = add i32 %3, 1
  %12 = load i32, ptr @hf_ieee80211_ff_ftm_tod, align 4
  %13 = tail call ptr @proto_tree_add_item(ptr noundef %0, i32 noundef %12, ptr noundef %1, i32 noundef %11, i32 noundef 6, i32 noundef -2147483648)
  %14 = add i32 %3, 7
  %15 = load i32, ptr @hf_ieee80211_ff_ftm_toa, align 4
  %16 = tail call ptr @proto_tree_add_item(ptr noundef %0, i32 noundef %15, ptr noundef %1, i32 noundef %14, i32 noundef 6, i32 noundef -2147483648)
  %17 = add i32 %3, 13
  %18 = load i32, ptr @hf_ieee80211_ff_ftm_tod_err1, align 4
  %19 = load i32, ptr @ett_ff_ftm_tod_err1, align 4
  %20 = tail call ptr @proto_tree_add_bitmask_with_flags(ptr noundef %0, ptr noundef %1, i32 noundef %17, i32 noundef %18, i32 noundef %19, ptr noundef nonnull @add_ff_ftm_tod_err1.fields, i32 noundef -2147483648, i32 noundef 1)
  %21 = add i32 %3, 14
  %22 = load i32, ptr @hf_ieee80211_ff_ftm_toa_err1, align 4
  %23 = load i32, ptr @ett_ff_ftm_toa_err1, align 4
  %24 = tail call ptr @proto_tree_add_bitmask_with_flags(ptr noundef %0, ptr noundef %1, i32 noundef %21, i32 noundef %22, i32 noundef %23, ptr noundef nonnull @add_ff_ftm_toa_err1.fields, i32 noundef -2147483648, i32 noundef 1)
  %25 = add i32 %3, 15
  %26 = load i32, ptr @hf_ieee80211_ff_ftm_cfo, align 4
  %27 = tail call ptr @proto_tree_add_item(ptr noundef %0, i32 noundef %26, ptr noundef %1, i32 noundef %25, i32 noundef 2, i32 noundef -2147483648)
  %28 = add i32 %3, 17
  %29 = load i32, ptr @hf_ieee80211_ff_ftm_r2i_ndp_tx_power, align 4
  %30 = tail call ptr @proto_tree_add_item(ptr noundef %0, i32 noundef %29, ptr noundef %1, i32 noundef %28, i32 noundef 1, i32 noundef -2147483648)
  %31 = add i32 %3, 18
  %32 = load i32, ptr @hf_ieee80211_ff_ftm_i2r_ndp_target_rssi, align 4
  %33 = tail call ptr @proto_tree_add_item(ptr noundef %0, i32 noundef %32, ptr noundef %1, i32 noundef %31, i32 noundef 1, i32 noundef -2147483648)
  %34 = add i32 %3, 19
  ret i32 %34
}